(dp0
S'chvrches'
p1
I0
sS'deorro'
p2
I1
sS'showtekmusic'
p3
I2
sS'damianlazarus'
p4
I3
sS'the1975'
p5
I4
sS'nicolemoudaber'
p6
I5
sS'OPIUO'
p7
I6
sS'zoetheband'
p8
I161
sS'factoryfloor'
p9
I8
sS'biggigantic'
p10
I9
sS'rudimentaluk'
p11
I10
sS'cagetheelephant'
p12
I11
sS'headandtheheart'
p13
I12
sS'coopersaver'
p14
I13
sS'NinaKraviz'
p15
I15
sS'sibonobo'
p16
I16
sS'sweaterbeats'
p17
I17
sS'flightfac'
p18
I18
sS'dumdumgirls'
p19
I19
sS'SaintsofValory'
p20
I20
sS'martingarrix'
p21
I21
sS'tompeterodell'
p22
I22
sS'wearegalantis'
p23
I23
sS'MrMikeyLion'
p24
I24
sS'FrankTurner'
p25
I25
sS'solangeknowles'
p26
I26
sS'courtneymelba'
p27
I27
sS'innrvsns'
p28
I29
sS'flumemusic'
p29
I30
sS'jamesvmcmorrow'
p30
I31
sS'chromeo'
p31
I138
sS'TheReplacements'
p32
I33
sS'hunterleggitt'
p33
I35
sS'guygerber'
p34
I36
sS'HolyGhostNYC'
p35
I37
sS'anti_flag'
p36
I38
sS'fishbonesoldier'
p37
I39
sS'bastilledan'
p38
I40
sS'NekoCase'
p39
I41
sS'themartinezbros'
p40
I149
sS'arcadefire'
p41
I42
sS'hernameisbanks'
p42
I43
sS'EmpireOfTheSun'
p43
I44
sS'netskymusic'
p44
I45
sS'Casablancas_J'
p45
I46
sS'Krewella'
p46
I28
sS'MitisOfficial'
p47
I48
sS'sleighbells'
p48
I77
sS'qotsa'
p49
I50
sS'tromboneshorty'
p50
I51
sS'bryanferry'
p51
I52
sS'LetsGo_RAMONES'
p52
I53
sS'lanadelrey'
p53
I54
sS'flatbushzombies'
p54
I164
sS'flosstradamus'
p55
I55
sS'djgabereal'
p56
I56
sS'shlohmo'
p57
I57
sS'Zedd'
p58
I58
sS'mogwaiband'
p59
I59
sS'foxygentheband'
p60
I60
sS'ScubaOfficial'
p61
I61
sS'poolside'
p62
I62
sS'djcarnage'
p63
I63
sS'dillonfrancis'
p64
I64
sS'vitoaeroplane'
p65
I65
sS'RATKING'
p66
I66
sS'ISAACTICHAUER'
p67
I67
sS'thebotsband'
p68
I68
sS'alunageorge'
p69
I69
sS'DukeDumont'
p70
I70
sS'myMotorhead'
p71
I81
sS'lauramvula'
p72
I72
sS'lordemusic'
p73
I73
sS'broken_bells'
p74
I74
sS'PIXIES'
p75
I174
sS'civxmusic'
p76
I76
sS'DROWNERSBAND'
p77
I49
sS'AdventureDub'
p78
I78
sS'templesofficial'
p79
I79
sS'LittleDragon'
p80
I47
sS'FatboySlim'
p81
I71
sS'michaelbrun'
p82
I82
sS'msmrsounds'
p83
I83
sS'skrillex'
p84
I84
sS'freddytoddmusic'
p85
I85
sS'ZZWard'
p86
I86
sS'thedplan'
p87
I87
sS'hotsince82'
p88
I88
sS'DavideSquillace'
p89
I89
sS'beck'
p90
I90
sS'LoveNLightMusic'
p91
I91
sS'juicewon'
p92
I92
sS'_warpaint'
p93
I93
sS'jagwarma'
p94
I94
sS'TJR'
p95
I95
sS'tysegall'
p96
I96
sS'om/djjohnbeaver'
p97
I98
sS'fosterthepeople'
p98
I99
sS'Jupit3rMusic'
p99
I100
sS'elliegoulding'
p100
I80
sS'officialcult'
p101
I101
sS'boningenuk'
p102
I14
sS'capitalcities'
p103
I97
sS'wearemako'
p104
I118
sS'intanetz'
p105
I105
sS'lafataylor'
p106
I106
sS'surferblood'
p107
I107
sS'starfucker'
p108
I108
sS'wyeoak'
p109
I109
sS'ohdaughter'
p110
I110
sS'DarksideUSA'
p111
I111
sS'theknifenews'
p112
I112
sS'Alesso'
p113
I113
sS'crossesmusic'
p114
I114
sS'ThePreatures'
p115
I115
sS'RuffHauser'
p116
I121
sS'chancetherapper'
p117
I117
sS'k_crutchfield'
p118
I181
sS'katenash'
p119
I104
sS'ciaotiga'
p120
I119
sS'NeutralMilkFans'
p121
I116
sS'alfalpha'
p122
I122
sS'feelmybicep'
p123
I123
sS'eewellsmusic'
p124
I124
sS'jheneaiko'
p125
I125
sS'Classixx'
p126
I126
sS'graveyard'
p127
I127
sS'blond_ish'
p128
I128
sS'Woodkid'
p129
I129
sS'kraddyodaddy'
p130
I130
sS'kleinenberg'
p131
I131
sS'ANNALUNOE'
p132
I132
sS'UnlocktheTruth3'
p133
I133
sS'bearhandsband'
p134
I134
sS'jsbx_1'
p135
I135
sS'Cajmere_'
p136
I136
sS'leebu'
p137
I137
sS'DuckSauceNYC'
p138
I32
sS'pharrell'
p139
I139
sS'anthonygreen'
p140
I140
sS'garethemery'
p141
I141
sS'ducidni'
p142
I142
sS'sydarthurband'
p143
I143
sS'preshallband'
p144
I144
sS'djjimbojenkins'
p145
I145
sS'wearegta'
p146
I146
sS'kidnapkid'
p147
I182
sS'whoisMGMT'
p148
I147
sS'haimtheband/'
p149
I148
sS'BombayBicycle'
p150
I34
sS'superchunk'
p151
I150
sS'LucentDossier'
p152
I151
sS'ricosheimusic'
p153
I152
sS'MaceoPlex'
p154
I153
sS'calvinharris'
p155
I154
sS'ernestgreene'
p156
I188
sS'HenryKrinkle_'
p157
I156
sS'futureislands'
p158
I102
sS'tnaf/'
p159
I157
sS'afi'
p160
I158
sS'ASAPferg'
p161
I189
sS'cityandcolour'
p162
I160
sS'theglitchmob'
p163
I7
sS'nas'
p164
I163
sS'rlgrime'
p165
I162
sS'BallTrapMusic'
p166
I165
sS'themagicianclub'
p167
I166
sS'WoodysProduce'
p168
I167
sS'laurentgarnier'
p169
I168
sS'BombinoOfficial'
p170
I169
sS'titlefight'
p171
I170
sS'dj_tennis'
p172
I171
sS'ARTDEPTMUSIC'
p173
I172
sS'petshopboys'
p174
I173
sS'educastillo'
p175
I75
sS'austratalks'
p176
I175
sS'JohnNewmanMusic'
p177
I176
sS'SolomunMusic'
p178
I177
sS'DJMAKJ'
p179
I178
sS'caravan_palace'
p180
I179
sS'muse'
p181
I180
sS'disclosure'
p182
I103
sS'djheadhunterz'
p183
I120
sS'theafghanwhigs'
p184
I183
sS'devhynes'
p185
I184
sS'girltalk'
p186
I185
sS'whiteliesmusic'
p187
I186
sS'JRoddyBusiness'
p188
I187
sS'IamDJFalcon'
p189
I155
sS'Co_fee'
p190
I159
sS'carbonairways'
p191
I190
sS'aloeblacc'
p192
I191
sS'grouplove'
p193
I192
sS'RavellsTweets'
p194
I193
s.